; ModuleID = 'source-C-CXX/49/1403.c'
source_filename = "source-C-CXX/49/1403.c"
target datalayout = "e-m:e-p270:32:32-p271:32:32-p272:64:64-i64:64-f80:128-n8:16:32:64-S128"
target triple = "x86_64-pc-linux-gnu"

@.str = private unnamed_addr constant [3 x i8] c"%d\00", align 1
@.str.1 = private unnamed_addr constant [4 x i8] c"%d\0A\00", align 1

; Function Attrs: nofree nounwind sspstrong uwtable
define dso_local i32 @main() local_unnamed_addr #0 {
  %1 = alloca i32, align 4
  %2 = bitcast i32* %1 to i8*
  call void @llvm.lifetime.start.p0i8(i64 4, i8* nonnull %2) #3
  %3 = call i32 (i8*, ...) @__isoc99_scanf(i8* getelementptr inbounds ([3 x i8], [3 x i8]* @.str, i64 0, i64 0), i32* nonnull %1)
  %4 = load i32, i32* %1, align 4, !tbaa !5
  %5 = icmp eq i32 %4, 2
  %6 = select i1 %5, i32 4, i32 5
  %7 = icmp eq i32 %4, 3
  %8 = select i1 %7, i32 3, i32 %6
  %9 = icmp eq i32 %4, 4
  %10 = select i1 %9, i32 2, i32 %8
  %11 = icmp eq i32 %4, 5
  %12 = select i1 %11, i32 1, i32 %10
  %13 = icmp eq i32 %4, 6
  %14 = select i1 %13, i32 0, i32 %12
  %15 = icmp eq i32 %4, 7
  %16 = select i1 %15, i32 6, i32 %14
  switch i32 %16, label %23 [
    i32 6, label %20
    i32 2, label %17
    i32 5, label %19
  ]

17:                                               ; preds = %0
  %18 = call i32 (i8*, ...) @printf(i8* nonnull dereferenceable(1) getelementptr inbounds ([4 x i8], [4 x i8]* @.str.1, i64 0, i64 0), i32 2)
  br label %20

19:                                               ; preds = %0
  br label %20

20:                                               ; preds = %0, %19, %17
  %21 = phi i32 [ 3, %17 ], [ 4, %19 ], [ 1, %0 ]
  %22 = call i32 (i8*, ...) @printf(i8* nonnull dereferenceable(1) getelementptr inbounds ([4 x i8], [4 x i8]* @.str.1, i64 0, i64 0), i32 %21)
  br label %23

23:                                               ; preds = %20, %0
  br i1 %13, label %24, label %26

24:                                               ; preds = %23
  %25 = call i32 (i8*, ...) @printf(i8* nonnull dereferenceable(1) getelementptr inbounds ([4 x i8], [4 x i8]* @.str.1, i64 0, i64 0), i32 5)
  br label %26

26:                                               ; preds = %24, %23
  switch i32 %16, label %36 [
    i32 3, label %33
    i32 5, label %27
    i32 1, label %28
    i32 4, label %31
    i32 6, label %29
    i32 2, label %30
  ]

27:                                               ; preds = %26
  br label %33

28:                                               ; preds = %26
  br label %33

29:                                               ; preds = %26
  br label %33

30:                                               ; preds = %26
  br label %33

31:                                               ; preds = %26
  %32 = call i32 (i8*, ...) @printf(i8* nonnull dereferenceable(1) getelementptr inbounds ([4 x i8], [4 x i8]* @.str.1, i64 0, i64 0), i32 9)
  br label %33

33:                                               ; preds = %26, %31, %30, %29, %27, %28
  %34 = phi i32 [ 8, %28 ], [ 7, %27 ], [ 10, %29 ], [ 11, %30 ], [ 12, %31 ], [ 6, %26 ]
  %35 = call i32 (i8*, ...) @printf(i8* nonnull dereferenceable(1) getelementptr inbounds ([4 x i8], [4 x i8]* @.str.1, i64 0, i64 0), i32 %34)
  br label %36

36:                                               ; preds = %33, %26
  call void @llvm.lifetime.end.p0i8(i64 4, i8* nonnull %2) #3
  ret i32 0
}

; Function Attrs: argmemonly mustprogress nofree nosync nounwind willreturn
declare void @llvm.lifetime.start.p0i8(i64 immarg, i8* nocapture) #1

; Function Attrs: nofree nounwind
declare noundef i32 @__isoc99_scanf(i8* nocapture noundef readonly, ...) local_unnamed_addr #2

; Function Attrs: nofree nounwind
declare noundef i32 @printf(i8* nocapture noundef readonly, ...) local_unnamed_addr #2

; Function Attrs: argmemonly mustprogress nofree nosync nounwind willreturn
declare void @llvm.lifetime.end.p0i8(i64 immarg, i8* nocapture) #1


!llvm.module.flags = !{!0, !1, !2, !3}
!llvm.ident = !{!4}

!0 = !{i32 1, !"wchar_size", i32 4}
!1 = !{i32 7, !"PIC Level", i32 2}
!2 = !{i32 7, !"PIE Level", i32 2}
!3 = !{i32 7, !"uwtable", i32 1}
!4 = !{!"clang version 13.0.0"}
!5 = !{!6, !6, i64 0}
!6 = !{!"int", !7, i64 0}
!7 = !{!"omnipotent char", !8, i64 0}
!8 = !{!"Simple C/C++ TBAA"}
